target datalayout = "e-m:e-p270:32:32-p271:32:32-p272:64:64-i64:64-i128:128-f80:128-n8:16:32:64-S128"
target triple = "x86_64-unknown-linux-gnu"

%struct.CommitBlockJob = type { %struct.BlockJob, ptr, ptr, ptr, ptr, ptr, i32, i8, i8, ptr }
%struct.BlockJob = type { %struct.Job, i32, i64, %struct.RateLimit, ptr, %struct.Notifier, %struct.Notifier, %struct.Notifier, %struct.Notifier, %struct.Notifier, ptr }
%struct.Job = type { ptr, ptr, ptr, i8, i8, ptr, ptr, %struct.ProgressMeter, ptr, i32, i32, %struct.QEMUTimer, i32, i8, i8, i8, i8, i8, i8, i32, ptr, %struct.NotifierList, %struct.NotifierList, %struct.NotifierList, %struct.NotifierList, %struct.NotifierList, %struct.anon.0, ptr, %struct.anon.1 }
%struct.ProgressMeter = type { i64, i64, %struct.QemuMutex }
%struct.QemuMutex = type { %union.pthread_mutex_t, i8 }
%union.pthread_mutex_t = type { %struct.__pthread_mutex_s }
%struct.__pthread_mutex_s = type { i32, i32, i32, i32, i32, i16, i16, %struct.__pthread_internal_list }
%struct.__pthread_internal_list = type { ptr, ptr }
%struct.QEMUTimer = type { i64, ptr, ptr, ptr, ptr, i32, i32 }
%struct.NotifierList = type { %struct.anon }
%struct.anon = type { ptr }
%struct.anon.0 = type { ptr, ptr }
%struct.anon.1 = type { ptr, ptr }
%struct.RateLimit = type { %struct.QemuMutex, i64, i64, i64, i64, i64 }
%struct.Notifier = type { ptr, %struct.anon.2 }
%struct.anon.2 = type { ptr, ptr }
%struct.BlockDriverState = type { i32, i8, i8, i8, i8, i8, ptr, ptr, ptr, %struct.anon.4, i8, [4096 x i8], [4096 x i8], [4096 x i8], [16 x i8], ptr, [4096 x i8], %struct.BlockLimits, i32, i32, i32, i32, [32 x i8], %union.anon, %union.anon.5, %union.anon.6, i32, [16 x %struct.anon.7], ptr, %struct.anon.8, ptr, ptr, %struct.anon.9, ptr, ptr, i32, ptr, i64, i64, %struct.QemuMutex, %struct.anon.10, %struct.Stat64, i32, i32, i32, i32, i32, i32, %struct.QemuMutex, %struct.anon.11, %struct.CoQueue, i8, i32, i8, %struct.CoMutex, ptr, ptr }
%struct.anon.4 = type { ptr }
%struct.BlockLimits = type { i32, i64, i32, i64, i32, i32, i32, i64, i32, i64, i64, i32, i8, i32, i32, i32, i32, i32, i32, i32 }
%union.anon = type { %struct.QTailQLink }
%struct.QTailQLink = type { ptr, ptr }
%union.anon.5 = type { %struct.QTailQLink }
%union.anon.6 = type { %struct.QTailQLink }
%struct.anon.7 = type { ptr }
%struct.anon.8 = type { ptr }
%struct.anon.9 = type { ptr }
%struct.anon.10 = type { ptr }
%struct.Stat64 = type { i64 }
%struct.anon.11 = type { ptr }
%struct.CoQueue = type { %struct.anon.12 }
%struct.anon.12 = type { ptr, ptr }
%struct.CoMutex = type { i32, ptr, %struct.anon.13, %struct.anon.13, i32, i32, ptr }
%struct.anon.13 = type { ptr }
%struct.BdrvChild = type { ptr, ptr, ptr, i32, ptr, i64, i64, i8, i8, %struct.anon.14, %struct.anon.15 }
%struct.anon.14 = type { ptr, ptr }
%struct.anon.15 = type { ptr, ptr }

@error_abort = external global ptr, align 8

; Function Attrs: nounwind sspstrong uwtable
define internal void @commit_abort(ptr noundef %job) #0 {
entry:
  %job.addr = alloca ptr, align 8
  %s = alloca ptr, align 8
  %__mptr = alloca ptr, align 8
  %tmp = alloca ptr, align 8
  %top_bs = alloca ptr, align 8
  %commit_top_backing_bs = alloca ptr, align 8
  store ptr %job, ptr %job.addr, align 8
  %0 = load ptr, ptr %job.addr, align 8
  store ptr %0, ptr %__mptr, align 8
  %1 = load ptr, ptr %__mptr, align 8
  %add.ptr = getelementptr i8, ptr %1, i64 0
  store ptr %add.ptr, ptr %tmp, align 8
  %2 = load ptr, ptr %tmp, align 8
  store ptr %2, ptr %s, align 8
  %3 = load ptr, ptr %s, align 8
  %top = getelementptr inbounds %struct.CommitBlockJob, ptr %3, i32 0, i32 2
  %4 = load ptr, ptr %top, align 8
  %call = call ptr @blk_bs(ptr noundef %4)
  store ptr %call, ptr %top_bs, align 8
  %5 = load ptr, ptr %s, align 8
  %chain_frozen = getelementptr inbounds %struct.CommitBlockJob, ptr %5, i32 0, i32 8
  %6 = load i8, ptr %chain_frozen, align 1
  %tobool = trunc i8 %6 to i1
  br i1 %tobool, label %if.then, label %if.end

if.then:                                          ; preds = %entry
  call void @bdrv_graph_rdlock_main_loop()
  %7 = load ptr, ptr %s, align 8
  %commit_top_bs = getelementptr inbounds %struct.CommitBlockJob, ptr %7, i32 0, i32 1
  %8 = load ptr, ptr %commit_top_bs, align 8
  %9 = load ptr, ptr %s, align 8
  %base_bs = getelementptr inbounds %struct.CommitBlockJob, ptr %9, i32 0, i32 4
  %10 = load ptr, ptr %base_bs, align 8
  call void @bdrv_unfreeze_backing_chain(ptr noundef %8, ptr noundef %10)
  call void @bdrv_graph_rdunlock_main_loop()
  br label %if.end

if.end:                                           ; preds = %if.then, %entry
  %11 = load ptr, ptr %top_bs, align 8
  call void @bdrv_ref(ptr noundef %11)
  %12 = load ptr, ptr %s, align 8
  %commit_top_bs1 = getelementptr inbounds %struct.CommitBlockJob, ptr %12, i32 0, i32 1
  %13 = load ptr, ptr %commit_top_bs1, align 8
  call void @bdrv_ref(ptr noundef %13)
  %14 = load ptr, ptr %s, align 8
  %base = getelementptr inbounds %struct.CommitBlockJob, ptr %14, i32 0, i32 3
  %15 = load ptr, ptr %base, align 8
  %tobool2 = icmp ne ptr %15, null
  br i1 %tobool2, label %if.then3, label %if.end5

if.then3:                                         ; preds = %if.end
  %16 = load ptr, ptr %s, align 8
  %base4 = getelementptr inbounds %struct.CommitBlockJob, ptr %16, i32 0, i32 3
  %17 = load ptr, ptr %base4, align 8
  call void @blk_unref(ptr noundef %17)
  br label %if.end5

if.end5:                                          ; preds = %if.then3, %if.end
  %18 = load ptr, ptr %s, align 8
  %common = getelementptr inbounds %struct.CommitBlockJob, ptr %18, i32 0, i32 0
  call void @block_job_remove_all_bdrv(ptr noundef %common)
  call void @bdrv_graph_rdlock_main_loop()
  %19 = load ptr, ptr %s, align 8
  %commit_top_bs6 = getelementptr inbounds %struct.CommitBlockJob, ptr %19, i32 0, i32 1
  %20 = load ptr, ptr %commit_top_bs6, align 8
  %backing = getelementptr inbounds %struct.BlockDriverState, ptr %20, i32 0, i32 30
  %21 = load ptr, ptr %backing, align 8
  %bs = getelementptr inbounds %struct.BdrvChild, ptr %21, i32 0, i32 0
  %22 = load ptr, ptr %bs, align 8
  store ptr %22, ptr %commit_top_backing_bs, align 8
  call void @bdrv_graph_rdunlock_main_loop()
  %23 = load ptr, ptr %commit_top_backing_bs, align 8
  call void @bdrv_drained_begin(ptr noundef %23)
  %24 = load ptr, ptr %commit_top_backing_bs, align 8
  call void @bdrv_graph_wrlock(ptr noundef %24)
  %25 = load ptr, ptr %s, align 8
  %commit_top_bs7 = getelementptr inbounds %struct.CommitBlockJob, ptr %25, i32 0, i32 1
  %26 = load ptr, ptr %commit_top_bs7, align 8
  %27 = load ptr, ptr %commit_top_backing_bs, align 8
  %call8 = call i32 @bdrv_replace_node(ptr noundef %26, ptr noundef %27, ptr noundef @error_abort)
  %28 = load ptr, ptr %commit_top_backing_bs, align 8
  call void @bdrv_graph_wrunlock(ptr noundef %28)
  %29 = load ptr, ptr %commit_top_backing_bs, align 8
  call void @bdrv_drained_end(ptr noundef %29)
  %30 = load ptr, ptr %s, align 8
  %commit_top_bs9 = getelementptr inbounds %struct.CommitBlockJob, ptr %30, i32 0, i32 1
  %31 = load ptr, ptr %commit_top_bs9, align 8
  call void @bdrv_unref(ptr noundef %31)
  %32 = load ptr, ptr %top_bs, align 8
  call void @bdrv_unref(ptr noundef %32)
  ret void
}