; Function Attrs: nounwind sspstrong uwtable
define internal void @commit_abort(ptr noundef %job) #0 {
entry:
  %top = getelementptr inbounds nuw i8, ptr %job, i64 528
  %0 = load ptr, ptr %top, align 8
  %call = tail call ptr @blk_bs(ptr noundef %0) #6
  %chain_frozen = getelementptr inbounds nuw i8, ptr %job, i64 565
  %1 = load i8, ptr %chain_frozen, align 1
  %tobool = trunc i8 %1 to i1
  br i1 %tobool, label %if.then, label %if.end

if.then:                                          ; preds = %entry
  tail call void @bdrv_graph_rdlock_main_loop() #6
  %commit_top_bs = getelementptr inbounds nuw i8, ptr %job, i64 520
  %2 = load ptr, ptr %commit_top_bs, align 8
  %base_bs = getelementptr inbounds nuw i8, ptr %job, i64 544
  %3 = load ptr, ptr %base_bs, align 8
  tail call void @bdrv_unfreeze_backing_chain(ptr noundef %2, ptr noundef %3) #6
  tail call void @bdrv_graph_rdunlock_main_loop() #6
  br label %if.end

if.end:                                           ; preds = %if.then, %entry
  tail call void @bdrv_ref(ptr noundef %call) #6
  %commit_top_bs1 = getelementptr inbounds nuw i8, ptr %job, i64 520
  %4 = load ptr, ptr %commit_top_bs1, align 8
  tail call void @bdrv_ref(ptr noundef %4) #6
  %base = getelementptr inbounds nuw i8, ptr %job, i64 536
  %5 = load ptr, ptr %base, align 8
  %tobool2.not = icmp eq ptr %5, null
  br i1 %tobool2.not, label %if.end5, label %if.then3

if.then3:                                         ; preds = %if.end
  tail call void @blk_unref(ptr noundef nonnull %5) #6
  br label %if.end5

if.end5:                                          ; preds = %if.then3, %if.end
  tail call void @block_job_remove_all_bdrv(ptr noundef nonnull %job) #6
  tail call void @bdrv_graph_rdlock_main_loop() #6
  %6 = load ptr, ptr %commit_top_bs1, align 8
  %backing = getelementptr inbounds nuw i8, ptr %6, i64 16832
  %7 = load ptr, ptr %backing, align 8
  %8 = load ptr, ptr %7, align 8
  tail call void @bdrv_graph_rdunlock_main_loop() #6
  tail call void @bdrv_drained_begin(ptr noundef %8) #6
  tail call void @bdrv_graph_wrlock(ptr noundef %8) #6
  %9 = load ptr, ptr %commit_top_bs1, align 8
  %call8 = tail call i32 @bdrv_replace_node(ptr noundef %9, ptr noundef %8, ptr noundef nonnull @error_abort) #6
  tail call void @bdrv_graph_wrunlock(ptr noundef %8) #6
  tail call void @bdrv_drained_end(ptr noundef %8) #6
  %10 = load ptr, ptr %commit_top_bs1, align 8
  tail call void @bdrv_unref(ptr noundef %10) #6
  tail call void @bdrv_unref(ptr noundef %call) #6
  ret void
}